target datalayout = "e-m:e-p270:32:32-p271:32:32-p272:64:64-i64:64-i128:128-f80:128-n8:16:32:64-S128"
target triple = "x86_64-pc-linux-gnu"

%"class.Assimp::UnrealImporter" = type <{ %"class.Assimp::BaseImporter", i32, i8, [3 x i8] }>
%"class.Assimp::BaseImporter" = type { ptr, double, double, %"class.std::__cxx11::basic_string", %"class.std::__exception_ptr::exception_ptr", ptr }
%"class.std::__cxx11::basic_string" = type { %"struct.std::__cxx11::basic_string<char>::_Alloc_hider", i64, %union.anon }
%"struct.std::__cxx11::basic_string<char>::_Alloc_hider" = type { ptr }
%union.anon = type { i64, [8 x i8] }
%"class.std::__exception_ptr::exception_ptr" = type { ptr }

@.str.2 = private unnamed_addr constant [23 x i8] c"IMPORT_UNREAL_KEYFRAME\00", align 1
@.str.3 = private unnamed_addr constant [23 x i8] c"IMPORT_GLOBAL_KEYFRAME\00", align 1
@.str.4 = private unnamed_addr constant [20 x i8] c"UNREAL_HANDLE_FLAGS\00", align 1

; Function Attrs: mustprogress uwtable
define hidden void @_ZN6Assimp14UnrealImporter15SetupPropertiesEPKNS_8ImporterE(ptr noundef nonnull align 8 dereferenceable(77) %0, ptr noundef %1) unnamed_addr #4 align 2 {
  %3 = alloca ptr, align 8
  %4 = alloca ptr, align 8
  store ptr %0, ptr %3, align 8
  store ptr %1, ptr %4, align 8
  %5 = load ptr, ptr %3, align 8
  %6 = load ptr, ptr %4, align 8
  %7 = call noundef i32 @_ZNK6Assimp8Importer18GetPropertyIntegerEPKci(ptr noundef nonnull align 8 dereferenceable(8) %6, ptr noundef @.str.2, i32 noundef -1)
  %8 = getelementptr inbounds nuw %"class.Assimp::UnrealImporter", ptr %5, i32 0, i32 1
  store i32 %7, ptr %8, align 8
  %9 = getelementptr inbounds nuw %"class.Assimp::UnrealImporter", ptr %5, i32 0, i32 1
  %10 = load i32, ptr %9, align 8
  %11 = icmp eq i32 -1, %10
  br i1 %11, label %12, label %16

12:                                               ; preds = %2
  %13 = load ptr, ptr %4, align 8
  %14 = call noundef i32 @_ZNK6Assimp8Importer18GetPropertyIntegerEPKci(ptr noundef nonnull align 8 dereferenceable(8) %13, ptr noundef @.str.3, i32 noundef 0)
  %15 = getelementptr inbounds nuw %"class.Assimp::UnrealImporter", ptr %5, i32 0, i32 1
  store i32 %14, ptr %15, align 8
  br label %16

16:                                               ; preds = %12, %2
  %17 = load ptr, ptr %4, align 8
  %18 = call noundef i32 @_ZNK6Assimp8Importer18GetPropertyIntegerEPKci(ptr noundef nonnull align 8 dereferenceable(8) %17, ptr noundef @.str.4, i32 noundef 1)
  %19 = icmp ne i32 0, %18
  %20 = getelementptr inbounds nuw %"class.Assimp::UnrealImporter", ptr %5, i32 0, i32 2
  %21 = zext i1 %19 to i8
  store i8 %21, ptr %20, align 4
  ret void
}